; ModuleID = 'bench/cmake/original/cmBinUtilsMacOSMachOGetRuntimeDependenciesTool.cxx.ll'
source_filename = "bench/cmake/original/cmBinUtilsMacOSMachOGetRuntimeDependenciesTool.cxx.ll"
target datalayout = "e-m:e-p270:32:32-p271:32:32-p272:64:64-i64:64-i128:128-f80:128-n8:16:32:64-S128"
target triple = "x86_64-pc-linux-gnu"

$_ZN46cmBinUtilsMacOSMachOGetRuntimeDependenciesToolD2Ev = comdat any

$_ZN46cmBinUtilsMacOSMachOGetRuntimeDependenciesToolD0Ev = comdat any

$_ZTV46cmBinUtilsMacOSMachOGetRuntimeDependenciesTool = comdat any

$_ZTS46cmBinUtilsMacOSMachOGetRuntimeDependenciesTool = comdat any

$_ZTI46cmBinUtilsMacOSMachOGetRuntimeDependenciesTool = comdat any

@_ZTV46cmBinUtilsMacOSMachOGetRuntimeDependenciesTool = linkonce_odr dso_local unnamed_addr constant { [5 x ptr] } { [5 x ptr] [ptr null, ptr @_ZTI46cmBinUtilsMacOSMachOGetRuntimeDependenciesTool, ptr @_ZN46cmBinUtilsMacOSMachOGetRuntimeDependenciesToolD2Ev, ptr @_ZN46cmBinUtilsMacOSMachOGetRuntimeDependenciesToolD0Ev, ptr @__cxa_pure_virtual] }, comdat, align 8
@_ZTVN10__cxxabiv117__class_type_infoE = external global [0 x ptr]
@_ZTS46cmBinUtilsMacOSMachOGetRuntimeDependenciesTool = linkonce_odr dso_local constant [49 x i8] c"46cmBinUtilsMacOSMachOGetRuntimeDependenciesTool\00", comdat, align 1
@_ZTI46cmBinUtilsMacOSMachOGetRuntimeDependenciesTool = linkonce_odr dso_local constant { ptr, ptr } { ptr getelementptr inbounds (ptr, ptr @_ZTVN10__cxxabiv117__class_type_infoE, i64 2), ptr @_ZTS46cmBinUtilsMacOSMachOGetRuntimeDependenciesTool }, comdat, align 8

; Function Attrs: mustprogress nofree norecurse nosync nounwind willreturn memory(argmem: write) uwtable
define dso_local void @_ZN46cmBinUtilsMacOSMachOGetRuntimeDependenciesToolC2EP26cmRuntimeDependencyArchive(ptr nocapture noundef nonnull writeonly align 8 dereferenceable(16) %0, ptr noundef %1) unnamed_addr #0 align 2 {
  store ptr getelementptr inbounds ({ [5 x ptr] }, ptr @_ZTV46cmBinUtilsMacOSMachOGetRuntimeDependenciesTool, i64 0, i32 0, i64 2), ptr %0, align 8
  %3 = getelementptr inbounds i8, ptr %0, i64 8
  store ptr %1, ptr %3, align 8
  ret void
}

; Function Attrs: mustprogress uwtable
define dso_local void @_ZN46cmBinUtilsMacOSMachOGetRuntimeDependenciesTool8SetErrorERKNSt7__cxx1112basic_stringIcSt11char_traitsIcESaIcEEE(ptr nocapture noundef nonnull readonly align 8 dereferenceable(16) %0, ptr noundef nonnull align 8 dereferenceable(32) %1) local_unnamed_addr #1 align 2 {
  %3 = getelementptr inbounds i8, ptr %0, i64 8
  %4 = load ptr, ptr %3, align 8
  tail call void @_ZN26cmRuntimeDependencyArchive8SetErrorERKNSt7__cxx1112basic_stringIcSt11char_traitsIcESaIcEEE(ptr noundef nonnull align 8 dereferenceable(440) %4, ptr noundef nonnull align 8 dereferenceable(32) %1)
  ret void
}

declare void @_ZN26cmRuntimeDependencyArchive8SetErrorERKNSt7__cxx1112basic_stringIcSt11char_traitsIcESaIcEEE(ptr noundef nonnull align 8 dereferenceable(440), ptr noundef nonnull align 8 dereferenceable(32)) local_unnamed_addr #2

; Function Attrs: mustprogress nounwind uwtable
define linkonce_odr dso_local void @_ZN46cmBinUtilsMacOSMachOGetRuntimeDependenciesToolD2Ev(ptr noundef nonnull align 8 dereferenceable(16) %0) unnamed_addr #3 comdat align 2 {
  ret void
}

; Function Attrs: mustprogress nounwind uwtable
define linkonce_odr dso_local void @_ZN46cmBinUtilsMacOSMachOGetRuntimeDependenciesToolD0Ev(ptr noundef nonnull align 8 dereferenceable(16) %0) unnamed_addr #3 comdat align 2 {
  tail call void @llvm.trap() #5
  unreachable
}

declare void @__cxa_pure_virtual() unnamed_addr

; Function Attrs: cold noreturn nounwind memory(inaccessiblemem: write)
declare void @llvm.trap() #4


!llvm.module.flags = !{!0, !1, !2, !3, !4}

!0 = !{i32 1, !"wchar_size", i32 4}
!1 = !{i32 8, !"PIC Level", i32 2}
!2 = !{i32 7, !"PIE Level", i32 2}
!3 = !{i32 7, !"uwtable", i32 2}
!4 = !{i32 7, !"frame-pointer", i32 2}
